(lp0
S'567451189267965580321004353606682325471599343205'
p1
aS'5601457217605039099994700037757240639312615754294145870124600078949'
p2
aS'134528302056678903554137519935288862305'
p3
aS'10342085146995571114420530415144405469291295459791356417463011390258'
p4
aS'2457377694192189259491428158342779788397299524318987171428'
p5
aS'374160799589756794606347284302405507041727077715369599434861927342695523'
p6
a.